(lp0
(lp1
Vspicier
p2
aVyeastier
p3
aVsmoother
p4
aVflavorless
p5
aVsaltier
p6
aVflatter
p7
aVjuicy
p8
aVspicyer
p9
aVflattest
p10
aVsalty
p11
aVbland
p12
aVsmoothest
p13
aVzestful
p14
aVflavourless
p15
aVtastier
p16
aVblander
p17
aVsuave
p18
aVtastyest
p19
aVjuicyest
p20
aVjuicier
p21
aVbarmy
p22
aVsavory
p23
aVyeasty
p24
aVzesty
p25
aVsaltiest
p26
aVflat
p27
aVspicy
p28
aVjejune
p29
aVtasteless
p30
aVunstimulating
p31
aVblandest
p32
aVflatest
p33
aVmouth-watering
p34
aVsavoury
p35
aVsavorless
p36
aVjuiciest
p37
aVvapid
p38
aVunexciting
p39
aVpiquant
p40
aVinsipid
p41
aVsmooth
p42
aVspiciest
p43
aVpolitic
p44
aVsavourless
p45
aVtasty
p46
aVtastiest
p47
aa(lp48
Vgreasier
p49
aVinspire
p50
aVoiliest
p51
aVreinvigorate
p52
aVfattier
p53
aVunsoured
p54
aVfattiest
p55
aVstalest
p56
aVactivating
p57
aVgreasiest
p58
aVuncontaminating
p59
aVdecayed
p60
aVexalt
p61
aVpreserved
p62
aVbriskest
p63
aVtonic
p64
aVgood
p65
aVundecomposed
p66
aVstaler
p67
aVactivation
p68
aVrefreshed
p69
aVfat
p70
aVunrefined
p71
aVshitty
p72
aVstinking
p73
aVcrisp
p74
aVfreshens
p75
aVrefresh
p76
aVunspoiled
p77
aVrefreshening
p78
aVlivens
p79
aVarouse
p80
aVanimate
p81
aVquicken
p82
aVrefreshes
p83
aVnew-made
p84
aVunhealthier
p85
aVunwholesome
p86
aVrotten
p87
aVbracing
p88
aVsebaceous
p89
aVrotted
p90
aVrefreshen
p91
aVpreserve
p92
aVunfermented
p93
aVinvigorated
p94
aVfreshening
p95
aVicky
p96
aVinvigorates
p97
aVgreasy
p98
aVanimated
p99
aVenlivening
p100
aVunspoilt
p101
aVkeep
p102
aVlousy
p103
aVfreshest
p104
aVstimulate
p105
aVenergising
p106
aVunhealthy
p107
aVsweet
p108
aVuncorrupted
p109
aVrevivified
p110
aVenlivened
p111
aVreinvigorated
p112
aVenliven
p113
aVbrisker
p114
aVinsalubrious
p115
aVoily
p116
aVinsanitary
p117
aVrefreshful
p118
aVliven
p119
aVbrisk
p120
aVexcite
p121
aVcrappy
p122
aVoleaginous
p123
aVunsanitary
p124
aVnovel
p125
aVinvigorate
p126
aVoilier
p127
aVstale
p128
aVcrude
p129
aVinvigorating
p130
aVunhealthiest
p131
aVfresh-cut
p132
aVfreshen
p133
aVlivened
p134
aVunprocessed
p135
aVlivening
p136
aVreinvigorating
p137
aVenergizing
p138
aVfreshened
p139
aVbrace
p140
aVunhealthful
p141
aVlousiest
p142
aVfatty
p143
aVenergise
p144
aVenergized
p145
aVrefreshing
p146
aVenergize
p147
aVfattyest
p148
aVlousier
p149
aVstinky
p150
aVclean
p151
aVenergizes
p152
aVfresh
p153
aa(lp154
Vsoggy
p155
aVpostponing
p156
aVinactive
p157
aVdawdlers
p158
aVprocrastinating
p159
aVapace
p160
aVslow
p161
aVrapidly
p162
aVforthwith
p163
aVagile
p164
aVspeedily
p165
aVpromptest
p166
aVlaggards
p167
aVslowest
p168
aVinstantly
p169
aVstraightaway
p170
aVslows
p171
aVunhurried
p172
aVfastest
p173
aVimmediately
p174
aVlaggers
p175
aVnow
p176
aVslacken
p177
aVslacked
p178
aVquick
p179
aVslacker
p180
aVduller
p181
aVquicker
p182
aVslower
p183
aVchop-chop
p184
aVslowed
p185
aVprocrastinated
p186
aVpoke
p187
aVspry
p188
aVquickest
p189
aVdillydallying
p190
aVpostpone
p191
aVsluggish
p192
aVdecreaseed
p193
aVpoky
p194
aVinert
p195
aVlessens
p196
aVtorpid
p197
aVpromptly
p198
aVnimble
p199
aVrapid
p200
aVactive
p201
aVdiminished
p202
aVfast-flying
p203
aVpronto
p204
aVspeedier
p205
aVspeedy
p206
aVtrailer
p207
aVdiminishes
p208
aVwaited
p209
aVslackened
p210
aVsulky
p211
aVdawdler
p212
aVspeediest
p213
aVdirectly
p214
aVsoggiest
p215
aVreadily
p216
aVflying
p217
aVfast
p218
aVquickly
p219
aVprocrastinate
p220
aVlagger
p221
aVlessened
p222
aVhesitates
p223
aVrelax
p224
aVdelayed
p225
aVimmediate
p226
aVhesitated
p227
aVdecreased
p228
aVdiminish
p229
aVdull
p230
aVfly
p231
aVslack
p232
aVlessen
p233
aVhesitating
p234
aVprompt
p235
aVdelaying
p236
aVslowing
p237
aVlaggard
p238
aVready
p239
aVhesitate
p240
aVdilatory
p241
aVdetain
p242
aVdelay
p243
aVsoggier
p244
aVpokey
p245
aVdiminishing
p246
aVdullest
p247
aVpostponed
p248
aVfaster
p249
aVpokiest
p250
aVdrone
p251
aVdetained
p252
aVdecreasing
p253
aa.