(lp0
(lp1
Vvapid
p2
aVflavorless
p3
aVjuicy
p4
aVsalty
p5
aVbland
p6
aVflavourless
p7
aVsuave
p8
aVbarmy
p9
aVsavory
p10
aVyeasty
p11
aVzesty
p12
aVflat
p13
aVspicy
p14
aVjejune
p15
aVtasteless
p16
aVunstimulating
p17
aVmouth-watering
p18
aVsavoury
p19
aVtasty
p20
aVinsipid
p21
aVunexciting
p22
aVpiquant
p23
aVsavorless
p24
aVsmooth
p25
aVpolitic
p26
aVsavourless
p27
aVzestful
p28
aa(lp29
Vrefreshful
p30
aVunhealthy
p31
aVsweet
p32
aVuncorrupted
p33
aVunsoured
p34
aVenergise
p35
aVarouse
p36
aVanimate
p37
aVkeep
p38
aVactivating
p39
aVfresh-cut
p40
aVfreshen
p41
aVinspire
p42
aVnew-made
p43
aVreinvigorated
p44
aVunwholesome
p45
aVenliven
p46
aVdecayed
p47
aVunsanitary
p48
aVgood
p49
aVexalt
p50
aVrotten
p51
aVbracing
p52
aVinsalubrious
p53
aVactivation
p54
aVsebaceous
p55
aVrotted
p56
aVquicken
p57
aVbrace
p58
aVrefreshen
p59
aVliven
p60
aVpreserved
p61
aVpreserve
p62
aVtonic
p63
aVunhealthful
p64
aVundecomposed
p65
aVfatty
p66
aVunfermented
p67
aVinvigorated
p68
aVbrisk
p69
aVrefreshed
p70
aVexcite
p71
aVfat
p72
aVcrappy
p73
aVshitty
p74
aVunprocessed
p75
aVicky
p76
aVoleaginous
p77
aVunrefined
p78
aVlousy
p79
aVenergizing
p80
aVgreasy
p81
aVstinking
p82
aVnovel
p83
aVcrisp
p84
aVrefreshing
p85
aVenergize
p86
aVinvigorate
p87
aVunspoilt
p88
aVrefresh
p89
aVoily
p90
aVuncontaminating
p91
aVunspoiled
p92
aVstinky
p93
aVreinvigorate
p94
aVinsanitary
p95
aVclean
p96
aVfresh
p97
aVstale
p98
aVcrude
p99
aVstimulate
p100
aa(lp101
Vprompt
p102
aVdetain
p103
aVdawdler
p104
aVlaggard
p105
aVinactive
p106
aVdirectly
p107
aVready
p108
aVsoggy
p109
aVspeedily
p110
aVreadily
p111
aVsulky
p112
aVapace
p113
aVslow
p114
aVrapidly
p115
aVspry
p116
aVpronto
p117
aVagile
p118
aVflying
p119
aVfast
p120
aVquickly
p121
aVdelay
p122
aVforthwith
p123
aVsluggish
p124
aVpoky
p125
aVstraightaway
p126
aVinert
p127
aVrelax
p128
aVpokey
p129
aVtorpid
p130
aVimmediate
p131
aVpromptly
p132
aVnimble
p133
aVrapid
p134
aVactive
p135
aVimmediately
p136
aVnow
p137
aVdull
p138
aVslack
p139
aVfly
p140
aVpoke
p141
aVslacken
p142
aVlagger
p143
aVunhurried
p144
aVchop-chop
p145
aVfast-flying
p146
aVdilatory
p147
aVdrone
p148
aVspeedy
p149
aVquick
p150
aVinstantly
p151
aVtrailer
p152
aa.